; Function Attrs: mustprogress nounwind uwtable
define internal fastcc void @_ZN12_GLOBAL__N_111StmtPrinter15VisitCXXTryStmtEPN5clang10CXXTryStmtE(ptr noundef nonnull align 8 dereferenceable(80) %0, ptr noundef readonly captures(none) %1) unnamed_addr #0 align 2 {
  %3 = getelementptr inbounds nuw i8, ptr %0, i64 8
  %4 = load i32, ptr %3, align 8
  %5 = icmp sgt i32 %4, 0
  br i1 %5, label %.lr.ph.i, label %_ZN12_GLOBAL__N_111StmtPrinter6IndentEi.exit

.lr.ph.i:                                         ; preds = %2, %_ZN4llvm11raw_ostreamlsEPKc.exit.i
  %.04.i = phi i32 [ %20, %_ZN4llvm11raw_ostreamlsEPKc.exit.i ], [ 0, %2 ]
  %6 = load ptr, ptr %0, align 8
  %7 = getelementptr inbounds nuw i8, ptr %6, i64 24
  %8 = load ptr, ptr %7, align 8
  %9 = getelementptr inbounds nuw i8, ptr %6, i64 32
  %10 = load ptr, ptr %9, align 8
  %11 = ptrtoint ptr %8 to i64
  %12 = ptrtoint ptr %10 to i64
  %13 = sub i64 %11, %12
  %14 = icmp ult i64 %13, 2
  br i1 %14, label %15, label %17

15:                                               ; preds = %.lr.ph.i
  %16 = tail call noundef nonnull align 8 dereferenceable(48) ptr @_ZN4llvm11raw_ostream5writeEPKcm(ptr noundef nonnull align 8 dereferenceable(48) %6, ptr noundef nonnull @.str.3, i64 noundef 2) #19
  br label %_ZN4llvm11raw_ostreamlsEPKc.exit.i

17:                                               ; preds = %.lr.ph.i
  store i16 8224, ptr %10, align 1
  %18 = load ptr, ptr %9, align 8
  %19 = getelementptr inbounds nuw i8, ptr %18, i64 2
  store ptr %19, ptr %9, align 8
  br label %_ZN4llvm11raw_ostreamlsEPKc.exit.i

_ZN4llvm11raw_ostreamlsEPKc.exit.i:               ; preds = %17, %15
  %20 = add nuw nsw i32 %.04.i, 1
  %exitcond.not.i = icmp eq i32 %20, %4
  br i1 %exitcond.not.i, label %_ZN12_GLOBAL__N_111StmtPrinter6IndentEi.exit, label %.lr.ph.i, !llvm.loop !16

_ZN12_GLOBAL__N_111StmtPrinter6IndentEi.exit:     ; preds = %_ZN4llvm11raw_ostreamlsEPKc.exit.i, %2
  %21 = load ptr, ptr %0, align 8
  %22 = getelementptr inbounds nuw i8, ptr %21, i64 24
  %23 = load ptr, ptr %22, align 8
  %24 = getelementptr inbounds nuw i8, ptr %21, i64 32
  %25 = load ptr, ptr %24, align 8
  %26 = ptrtoint ptr %23 to i64
  %27 = ptrtoint ptr %25 to i64
  %28 = sub i64 %26, %27
  %29 = icmp ult i64 %28, 4
  br i1 %29, label %30, label %32

30:                                               ; preds = %_ZN12_GLOBAL__N_111StmtPrinter6IndentEi.exit
  %31 = tail call noundef nonnull align 8 dereferenceable(48) ptr @_ZN4llvm11raw_ostream5writeEPKcm(ptr noundef nonnull align 8 dereferenceable(48) %21, ptr noundef nonnull @.str.231, i64 noundef 4) #19
  br label %_ZN4llvm11raw_ostreamlsEPKc.exit

32:                                               ; preds = %_ZN12_GLOBAL__N_111StmtPrinter6IndentEi.exit
  store i32 544830068, ptr %25, align 1
  %33 = load ptr, ptr %24, align 8
  %34 = getelementptr inbounds nuw i8, ptr %33, i64 4
  store ptr %34, ptr %24, align 8
  br label %_ZN4llvm11raw_ostreamlsEPKc.exit

_ZN4llvm11raw_ostreamlsEPKc.exit:                 ; preds = %30, %32
  %35 = getelementptr inbounds nuw i8, ptr %1, i64 16
  %36 = load ptr, ptr %35, align 8
  tail call fastcc void @_ZN12_GLOBAL__N_111StmtPrinter20PrintRawCompoundStmtEPN5clang12CompoundStmtE(ptr noundef nonnull align 8 dereferenceable(80) %0, ptr noundef %36)
  %37 = getelementptr inbounds nuw i8, ptr %1, i64 12
  %38 = load i32, ptr %37, align 4
  %.not = icmp eq i32 %38, 0
  br i1 %.not, label %._crit_edge, label %.lr.ph.preheader

.lr.ph.preheader:                                 ; preds = %_ZN4llvm11raw_ostreamlsEPKc.exit
  %wide.trip.count = zext i32 %38 to i64
  br label %.lr.ph

.lr.ph:                                           ; preds = %.lr.ph.preheader, %_ZN4llvm11raw_ostreamlsEPKc.exit9
  %indvars.iv = phi i64 [ 0, %.lr.ph.preheader ], [ %indvars.iv.next, %_ZN4llvm11raw_ostreamlsEPKc.exit9 ]
  %39 = load ptr, ptr %0, align 8
  %40 = getelementptr inbounds nuw i8, ptr %39, i64 24
  %41 = load ptr, ptr %40, align 8
  %42 = getelementptr inbounds nuw i8, ptr %39, i64 32
  %43 = load ptr, ptr %42, align 8
  %44 = icmp eq ptr %41, %43
  br i1 %44, label %45, label %47

45:                                               ; preds = %.lr.ph
  %46 = tail call noundef nonnull align 8 dereferenceable(48) ptr @_ZN4llvm11raw_ostream5writeEPKcm(ptr noundef nonnull align 8 dereferenceable(48) %39, ptr noundef nonnull @.str.13, i64 noundef 1) #19
  br label %_ZN4llvm11raw_ostreamlsEPKc.exit9

47:                                               ; preds = %.lr.ph
  store i8 32, ptr %43, align 1
  %48 = load ptr, ptr %42, align 8
  %49 = getelementptr inbounds nuw i8, ptr %48, i64 1
  store ptr %49, ptr %42, align 8
  br label %_ZN4llvm11raw_ostreamlsEPKc.exit9

_ZN4llvm11raw_ostreamlsEPKc.exit9:                ; preds = %45, %47
  %indvars.iv.next = add nuw nsw i64 %indvars.iv, 1
  %50 = getelementptr inbounds nuw ptr, ptr %35, i64 %indvars.iv.next
  %51 = load ptr, ptr %50, align 8
  tail call fastcc void @_ZN12_GLOBAL__N_111StmtPrinter20PrintRawCXXCatchStmtEPN5clang12CXXCatchStmtE(ptr noundef nonnull align 8 dereferenceable(80) %0, ptr noundef %51)
  %exitcond.not = icmp eq i64 %indvars.iv.next, %wide.trip.count
  br i1 %exitcond.not, label %._crit_edge, label %.lr.ph, !llvm.loop !82

._crit_edge:                                      ; preds = %_ZN4llvm11raw_ostreamlsEPKc.exit9, %_ZN4llvm11raw_ostreamlsEPKc.exit
  %52 = load ptr, ptr %0, align 8
  %53 = getelementptr inbounds nuw i8, ptr %0, i64 40
  %54 = tail call noundef ptr @_ZNKSt7__cxx1112basic_stringIcSt11char_traitsIcESaIcEE4dataEv(ptr noundef nonnull align 8 dereferenceable(32) %53) #19
  %55 = tail call noundef i64 @_ZNKSt7__cxx1112basic_stringIcSt11char_traitsIcESaIcEE6lengthEv(ptr noundef nonnull align 8 dereferenceable(32) %53) #19
  %56 = tail call noundef nonnull align 8 dereferenceable(48) ptr @_ZN4llvm11raw_ostream5writeEPKcm(ptr noundef nonnull align 8 dereferenceable(48) %52, ptr noundef %54, i64 noundef %55) #19
  ret void
}